; Function Attrs: nounwind sspstrong uwtable
define internal noundef i32 @loaded_features_index_clear_i(i64 %0, i64 noundef %1, i64 %2) #0 {
  %4 = icmp eq i64 %1, 0
  %5 = and i64 %1, 7
  %6 = icmp ne i64 %5, 0
  %7 = or i1 %4, %6
  br i1 %7, label %10, label %8

8:                                                ; preds = %3
  %9 = inttoptr i64 %1 to ptr
  tail call void @ruby_xfree(ptr noundef %9) #7
  br label %10

10:                                               ; preds = %8, %3
  ret i32 2
}